(dp1
S'1D3001P3-072'
p2
(lp3
(dp4
S'difficult'
p5
I0
sS'pose'
p6
S'Unspecified'
p7
sS'name'
p8
S'vehicle'
p9
sS'bbox'
p10
(lp11
I355
aI529
aI420
aI598
asS'truncated'
p12
I0
sa(dp13
g5
I0
sg6
S'Unspecified'
p14
sg8
S'vehicle'
p15
sg10
(lp16
I410
aI480
aI471
aI543
asg12
I0
sa(dp17
g5
I0
sg6
S'Unspecified'
p18
sg8
S'vehicle'
p19
sg10
(lp20
I461
aI421
aI527
aI480
asg12
I0
sa(dp21
g5
I0
sg6
S'Unspecified'
p22
sg8
S'vehicle'
p23
sg10
(lp24
I600
aI425
aI660
aI484
asg12
I0
sa(dp25
g5
I0
sg6
S'Unspecified'
p26
sg8
S'vehicle'
p27
sg10
(lp28
I643
aI351
aI719
aI425
asg12
I0
sa(dp29
g5
I0
sg6
S'Unspecified'
p30
sg8
S'vehicle'
p31
sg10
(lp32
I710
aI170
aI797
aI253
asg12
I0
sa(dp33
g5
I0
sg6
S'Unspecified'
p34
sg8
S'vehicle'
p35
sg10
(lp36
I399
aI628
aI463
aI694
asg12
I0
sa(dp37
g5
I0
sg6
S'Unspecified'
p38
sg8
S'vehicle'
p39
sg10
(lp40
I475
aI532
aI547
aI605
asg12
I0
sa(dp41
g5
I0
sg6
S'Unspecified'
p42
sg8
S'vehicle'
p43
sg10
(lp44
I1186
aI270
aI1280
aI317
asg12
I1
sasS'1D3001P3-073'
p45
(lp46
(dp47
g5
I0
sg6
S'Unspecified'
p48
sg8
S'vehicle'
p49
sg10
(lp50
I1
aI475
aI64
aI532
asg12
I1
sa(dp51
g5
I0
sg6
S'Unspecified'
p52
sg8
S'vehicle'
p53
sg10
(lp54
I64
aI391
aI143
aI441
asg12
I0
sa(dp55
g5
I0
sg6
S'Unspecified'
p56
sg8
S'vehicle'
p57
sg10
(lp58
I1
aI417
aI48
aI454
asg12
I1
sa(dp59
g5
I0
sg6
S'Unspecified'
p60
sg8
S'vehicle'
p61
sg10
(lp62
I163
aI441
aI254
aI486
asg12
I0
sa(dp63
g5
I0
sg6
S'Unspecified'
p64
sg8
S'vehicle'
p65
sg10
(lp66
I258
aI402
aI352
aI460
asg12
I0
sa(dp67
g5
I0
sg6
S'Unspecified'
p68
sg8
S'vehicle'
p69
sg10
(lp70
I449
aI290
aI554
aI360
asg12
I0
sa(dp71
g5
I0
sg6
S'Unspecified'
p72
sg8
S'vehicle'
p73
sg10
(lp74
I877
aI178
aI932
aI247
asg12
I0
sa(dp75
g5
I0
sg6
S'Unspecified'
p76
sg8
S'vehicle'
p77
sg10
(lp78
I946
aI215
aI1043
aI271
asg12
I0
sa(dp79
g5
I0
sg6
S'Unspecified'
p80
sg8
S'vehicle'
p81
sg10
(lp82
I867
aI130
aI978
aI202
asg12
I0
sa(dp83
g5
I0
sg6
S'Unspecified'
p84
sg8
S'vehicle'
p85
sg10
(lp86
I783
aI17
aI908
aI126
asg12
I0
sa(dp87
g5
I0
sg6
S'Unspecified'
p88
sg8
S'vehicle'
p89
sg10
(lp90
I932
aI69
aI1010
aI137
asg12
I0
sa(dp91
g5
I0
sg6
S'Unspecified'
p92
sg8
S'vehicle'
p93
sg10
(lp94
I1023
aI69
aI1110
aI130
asg12
I0
sa(dp95
g5
I0
sg6
S'Unspecified'
p96
sg8
S'vehicle'
p97
sg10
(lp98
I1061
aI137
aI1144
aI195
asg12
I0
sa(dp99
g5
I0
sg6
S'Unspecified'
p100
sg8
S'vehicle'
p101
sg10
(lp102
I1121
aI132
aI1217
aI205
asg12
I0
sa(dp103
g5
I0
sg6
S'Unspecified'
p104
sg8
S'vehicle'
p105
sg10
(lp106
I959
aI17
aI1017
aI60
asg12
I0
sa(dp107
g5
I0
sg6
S'Unspecified'
p108
sg8
S'vehicle'
p109
sg10
(lp110
I803
aI1
aI859
aI35
asg12
I1
sasS'1D3001P3-076'
p111
(lp112
(dp113
g5
I0
sg6
S'Unspecified'
p114
sg8
S'vehicle'
p115
sg10
(lp116
I138
aI294
aI285
aI377
asg12
I0
sa(dp117
g5
I0
sg6
S'Unspecified'
p118
sg8
S'vehicle'
p119
sg10
(lp120
I902
aI246
aI976
aI329
asg12
I0
sa(dp121
g5
I0
sg6
S'Unspecified'
p122
sg8
S'vehicle'
p123
sg10
(lp124
I965
aI316
aI1073
aI394
asg12
I0
sa(dp125
g5
I0
sg6
S'Unspecified'
p126
sg8
S'vehicle'
p127
sg10
(lp128
I980
aI179
aI1082
aI280
asg12
I0
sa(dp129
g5
I0
sg6
S'Unspecified'
p130
sg8
S'vehicle'
p131
sg10
(lp132
I1165
aI114
aI1222
aI207
asg12
I0
sa(dp133
g5
I0
sg6
S'Unspecified'
p134
sg8
S'vehicle'
p135
sg10
(lp136
I1105
aI2
aI1164
aI61
asg12
I0
sa(dp137
g5
I0
sg6
S'Unspecified'
p138
sg8
S'vehicle'
p139
sg10
(lp140
I1258
aI232
aI1280
aI312
asg12
I1
sasS'1D3001P3-074'
p141
(lp142
(dp143
g5
I0
sg6
S'Unspecified'
p144
sg8
S'vehicle'
p145
sg10
(lp146
I1
aI425
aI108
aI549
asg12
I1
sa(dp147
g5
I0
sg6
S'Unspecified'
p148
sg8
S'vehicle'
p149
sg10
(lp150
I460
aI248
aI705
aI397
asg12
I0
sasS'1D3001P3-075'
p151
(lp152
(dp153
g5
I0
sg6
S'Unspecified'
p154
sg8
S'vehicle'
p155
sg10
(lp156
I145
aI474
aI273
aI554
asg12
I0
sa(dp157
g5
I0
sg6
S'Unspecified'
p158
sg8
S'vehicle'
p159
sg10
(lp160
I483
aI290
aI617
aI386
asg12
I0
sa(dp161
g5
I0
sg6
S'Unspecified'
p162
sg8
S'vehicle'
p163
sg10
(lp164
I1128
aI92
aI1181
aI170
asg12
I0
sa(dp165
g5
I0
sg6
S'Unspecified'
p166
sg8
S'vehicle'
p167
sg10
(lp168
I1202
aI135
aI1280
aI188
asg12
I1
sa(dp169
g5
I0
sg6
S'Unspecified'
p170
sg8
S'vehicle'
p171
sg10
(lp172
I1149
aI17
aI1266
aI99
asg12
I0
sa(dp173
g5
I0
sg6
S'Unspecified'
p174
sg8
S'vehicle'
p175
sg10
(lp176
I60
aI536
aI129
aI554
asg12
I0
sasS'1D3001P3-090'
p177
(lp178
(dp179
g5
I0
sg6
S'Unspecified'
p180
sg8
S'vehicle'
p181
sg10
(lp182
I257
aI503
aI360
aI605
asg12
I0
sa(dp183
g5
I0
sg6
S'Unspecified'
p184
sg8
S'vehicle'
p185
sg10
(lp186
I379
aI515
aI511
aI580
asg12
I0
sa(dp187
g5
I0
sg6
S'Unspecified'
p188
sg8
S'vehicle'
p189
sg10
(lp190
I194
aI414
aI359
aI503
asg12
I0
sa(dp191
g5
I0
sg6
S'Unspecified'
p192
sg8
S'vehicle'
p193
sg10
(lp194
I203
aI274
aI329
aI358
asg12
I0
sa(dp195
g5
I0
sg6
S'Unspecified'
p196
sg8
S'vehicle'
p197
sg10
(lp198
I36
aI178
aI162
aI258
asg12
I0
sa(dp199
g5
I0
sg6
S'Unspecified'
p200
sg8
S'vehicle'
p201
sg10
(lp202
I1
aI216
aI83
aI291
asg12
I1
sa(dp203
g5
I0
sg6
S'Unspecified'
p204
sg8
S'vehicle'
p205
sg10
(lp206
I420
aI304
aI540
aI376
asg12
I0
sa(dp207
g5
I0
sg6
S'Unspecified'
p208
sg8
S'vehicle'
p209
sg10
(lp210
I8
aI112
aI118
aI181
asg12
I0
sa(dp211
g5
I0
sg6
S'Unspecified'
p212
sg8
S'vehicle'
p213
sg10
(lp214
I135
aI154
aI252
aI226
asg12
I0
sa(dp215
g5
I0
sg6
S'Unspecified'
p216
sg8
S'vehicle'
p217
sg10
(lp218
I299
aI210
aI435
aI287
asg12
I0
sa(dp219
g5
I0
sg6
S'Unspecified'
p220
sg8
S'vehicle'
p221
sg10
(lp222
I477
aI267
aI628
aI353
asg12
I0
sa(dp223
g5
I0
sg6
S'Unspecified'
p224
sg8
S'vehicle'
p225
sg10
(lp226
I703
aI341
aI810
aI413
asg12
I0
sa(dp227
g5
I0
sg6
S'Unspecified'
p228
sg8
S'vehicle'
p229
sg10
(lp230
I828
aI391
aI958
aI465
asg12
I0
sa(dp231
g5
I0
sg6
S'Unspecified'
p232
sg8
S'vehicle'
p233
sg10
(lp234
I985
aI449
aI1110
aI519
asg12
I0
sa(dp235
g5
I0
sg6
S'Unspecified'
p236
sg8
S'vehicle'
p237
sg10
(lp238
I1127
aI481
aI1271
aI569
asg12
I0
sasS'1D3001P3-091'
p239
(lp240
(dp241
g5
I0
sg6
S'Unspecified'
p242
sg8
S'vehicle'
p243
sg10
(lp244
I200
aI424
aI275
aI516
asg12
I0
sa(dp245
g5
I0
sg6
S'Unspecified'
p246
sg8
S'vehicle'
p247
sg10
(lp248
I296
aI459
aI425
aI514
asg12
I0
sa(dp249
g5
I0
sg6
S'Unspecified'
p250
sg8
S'vehicle'
p251
sg10
(lp252
I188
aI341
aI327
aI442
asg12
I0
sa(dp253
g5
I0
sg6
S'Unspecified'
p254
sg8
S'vehicle'
p255
sg10
(lp256
I270
aI225
aI368
aI309
asg12
I0
sa(dp257
g5
I0
sg6
S'Unspecified'
p258
sg8
S'vehicle'
p259
sg10
(lp260
I449
aI288
aI549
aI366
asg12
I0
sa(dp261
g5
I0
sg6
S'Unspecified'
p262
sg8
S'vehicle'
p263
sg10
(lp264
I1
aI62
aI60
aI148
asg12
I1
sa(dp265
g5
I0
sg6
S'Unspecified'
p266
sg8
S'vehicle'
p267
sg10
(lp268
I47
aI38
aI138
aI119
asg12
I0
sa(dp269
g5
I0
sg6
S'Unspecified'
p270
sg8
S'vehicle'
p271
sg10
(lp272
I90
aI136
aI185
aI214
asg12
I0
sa(dp273
g5
I0
sg6
S'Unspecified'
p274
sg8
S'vehicle'
p275
sg10
(lp276
I175
aI118
aI269
aI200
asg12
I0
sa(dp277
g5
I0
sg6
S'Unspecified'
p278
sg8
S'vehicle'
p279
sg10
(lp280
I182
aI60
aI277
aI127
asg12
I0
sa(dp281
g5
I0
sg6
S'Unspecified'
p282
sg8
S'vehicle'
p283
sg10
(lp284
I30
aI1
aI129
aI39
asg12
I1
sa(dp285
g5
I0
sg6
S'Unspecified'
p286
sg8
S'vehicle'
p287
sg10
(lp288
I269
aI121
aI370
aI190
asg12
I0
sa(dp289
g5
I0
sg6
S'Unspecified'
p290
sg8
S'vehicle'
p291
sg10
(lp292
I394
aI194
aI503
aI269
asg12
I0
sa(dp293
g5
I0
sg6
S'Unspecified'
p294
sg8
S'vehicle'
p295
sg10
(lp296
I515
aI271
aI644
aI359
asg12
I0
sa(dp297
g5
I0
sg6
S'Unspecified'
p298
sg8
S'vehicle'
p299
sg10
(lp300
I678
aI374
aI773
aI443
asg12
I0
sa(dp301
g5
I0
sg6
S'Unspecified'
p302
sg8
S'vehicle'
p303
sg10
(lp304
I771
aI439
aI877
aI519
asg12
I0
sa(dp305
g5
I0
sg6
S'Unspecified'
p306
sg8
S'vehicle'
p307
sg10
(lp308
I879
aI507
aI989
aI582
asg12
I0
sa(dp309
g5
I0
sg6
S'Unspecified'
p310
sg8
S'vehicle'
p311
sg10
(lp312
I979
aI562
aI1096
aI644
asg12
I0
sasS'1D3001P3-092'
p313
(lp314
(dp315
g5
I0
sg6
S'Unspecified'
p316
sg8
S'vehicle'
p317
sg10
(lp318
I1
aI381
aI89
aI495
asg12
I1
sa(dp319
g5
I0
sg6
S'Unspecified'
p320
sg8
S'vehicle'
p321
sg10
(lp322
I65
aI1
aI195
aI151
asg12
I1
sa(dp323
g5
I0
sg6
S'Unspecified'
p324
sg8
S'vehicle'
p325
sg10
(lp326
I306
aI158
aI449
aI294
asg12
I0
sa(dp327
g5
I0
sg6
S'Unspecified'
p328
sg8
S'vehicle'
p329
sg10
(lp330
I311
aI1
aI466
aI134
asg12
I1
sa(dp331
g5
I0
sg6
S'Unspecified'
p332
sg8
S'vehicle'
p333
sg10
(lp334
I439
aI156
aI621
aI315
asg12
I0
sa(dp335
g5
I0
sg6
S'Unspecified'
p336
sg8
S'vehicle'
p337
sg10
(lp338
I635
aI372
aI762
aI491
asg12
I0
sa(dp339
g5
I0
sg6
S'Unspecified'
p340
sg8
S'vehicle'
p341
sg10
(lp342
I717
aI509
aI868
aI636
asg12
I0
sasS'1D3001P3-093'
p343
(lp344
(dp345
g5
I0
sg6
S'Unspecified'
p346
sg8
S'vehicle'
p347
sg10
(lp348
I255
aI3
aI307
aI69
asg12
I0
sa(dp349
g5
I0
sg6
S'Unspecified'
p350
sg8
S'vehicle'
p351
sg10
(lp352
I326
aI297
aI387
aI365
asg12
I0
sa(dp353
g5
I0
sg6
S'Unspecified'
p354
sg8
S'vehicle'
p355
sg10
(lp356
I382
aI341
aI475
aI402
asg12
I0
sa(dp357
g5
I0
sg6
S'Unspecified'
p358
sg8
S'vehicle'
p359
sg10
(lp360
I386
aI250
aI471
aI320
asg12
I0
sa(dp361
g5
I0
sg6
S'Unspecified'
p362
sg8
S'vehicle'
p363
sg10
(lp364
I583
aI565
aI633
aI633
asg12
I0
sa(dp365
g5
I0
sg6
S'Unspecified'
p366
sg8
S'vehicle'
p367
sg10
(lp368
I437
aI36
aI493
aI103
asg12
I0
sa(dp369
g5
I0
sg6
S'Unspecified'
p370
sg8
S'vehicle'
p371
sg10
(lp372
I469
aI103
aI519
aI172
asg12
I0
sa(dp373
g5
I0
sg6
S'Unspecified'
p374
sg8
S'vehicle'
p375
sg10
(lp376
I548
aI111
aI584
aI177
asg12
I0
sa(dp377
g5
I0
sg6
S'Unspecified'
p378
sg8
S'vehicle'
p379
sg10
(lp380
I532
aI195
aI577
aI261
asg12
I0
sa(dp381
g5
I0
sg6
S'Unspecified'
p382
sg8
S'vehicle'
p383
sg10
(lp384
I610
aI270
aI657
aI330
asg12
I0
sa(dp385
g5
I0
sg6
S'Unspecified'
p386
sg8
S'vehicle'
p387
sg10
(lp388
I642
aI202
aI694
aI260
asg12
I0
sa(dp389
g5
I0
sg6
S'Unspecified'
p390
sg8
S'vehicle'
p391
sg10
(lp392
I670
aI273
aI732
aI344
asg12
I0
sa(dp393
g5
I0
sg6
S'Unspecified'
p394
sg8
S'vehicle'
p395
sg10
(lp396
I715
aI368
aI763
aI416
asg12
I0
sa(dp397
g5
I0
sg6
S'Unspecified'
p398
sg8
S'vehicle'
p399
sg10
(lp400
I732
aI422
aI785
aI476
asg12
I0
sa(dp401
g5
I0
sg6
S'Unspecified'
p402
sg8
S'vehicle'
p403
sg10
(lp404
I757
aI486
aI804
aI536
asg12
I0
sa(dp405
g5
I0
sg6
S'Unspecified'
p406
sg8
S'vehicle'
p407
sg10
(lp408
I782
aI538
aI843
aI602
asg12
I0
sa(dp409
g5
I0
sg6
S'Unspecified'
p410
sg8
S'vehicle'
p411
sg10
(lp412
I815
aI606
aI862
aI646
asg12
I0
sa(dp413
g5
I0
sg6
S'Unspecified'
p414
sg8
S'vehicle'
p415
sg10
(lp416
I590
aI82
aI639
aI128
asg12
I0
sa(dp417
g5
I0
sg6
S'Unspecified'
p418
sg8
S'vehicle'
p419
sg10
(lp420
I510
aI42
aI556
aI103
asg12
I0
sa(dp421
g5
I0
sg6
S'Unspecified'
p422
sg8
S'vehicle'
p423
sg10
(lp424
I552
aI3
aI604
aI52
asg12
I0
sa(dp425
g5
I0
sg6
S'Unspecified'
p426
sg8
S'vehicle'
p427
sg10
(lp428
I480
aI1
aI521
aI19
asg12
I1
sasS'1D3001P3-094'
p429
(lp430
(dp431
g5
I0
sg6
S'Unspecified'
p432
sg8
S'vehicle'
p433
sg10
(lp434
I692
aI336
aI771
aI388
asg12
I0
sa(dp435
g5
I0
sg6
S'Unspecified'
p436
sg8
S'vehicle'
p437
sg10
(lp438
I736
aI389
aI804
aI442
asg12
I0
sa(dp439
g5
I0
sg6
S'Unspecified'
p440
sg8
S'vehicle'
p441
sg10
(lp442
I777
aI308
aI852
aI385
asg12
I0
sa(dp443
g5
I0
sg6
S'Unspecified'
p444
sg8
S'vehicle'
p445
sg10
(lp446
I822
aI68
aI866
aI132
asg12
I0
sa(dp447
g5
I0
sg6
S'Unspecified'
p448
sg8
S'vehicle'
p449
sg10
(lp450
I940
aI304
aI992
aI369
asg12
I0
sa(dp451
g5
I0
sg6
S'Unspecified'
p452
sg8
S'vehicle'
p453
sg10
(lp454
I971
aI390
aI1027
aI452
asg12
I0
sa(dp455
g5
I0
sg6
S'Unspecified'
p456
sg8
S'vehicle'
p457
sg10
(lp458
I1004
aI242
aI1058
aI303
asg12
I0
sa(dp459
g5
I0
sg6
S'Unspecified'
p460
sg8
S'vehicle'
p461
sg10
(lp462
I952
aI213
aI991
aI275
asg12
I0
sa(dp463
g5
I0
sg6
S'Unspecified'
p464
sg8
S'vehicle'
p465
sg10
(lp466
I962
aI144
aI1010
aI210
asg12
I0
sa(dp467
g5
I0
sg6
S'Unspecified'
p468
sg8
S'vehicle'
p469
sg10
(lp470
I1022
aI173
aI1068
aI236
asg12
I0
sa(dp471
g5
I0
sg6
S'Unspecified'
p472
sg8
S'vehicle'
p473
sg10
(lp474
I1039
aI92
aI1090
aI155
asg12
I0
sa(dp475
g5
I0
sg6
S'Unspecified'
p476
sg8
S'vehicle'
p477
sg10
(lp478
I999
aI26
aI1048
aI83
asg12
I0
sa(dp479
g5
I0
sg6
S'Unspecified'
p480
sg8
S'vehicle'
p481
sg10
(lp482
I1050
aI43
aI1094
aI104
asg12
I0
sa(dp483
g5
I0
sg6
S'Unspecified'
p484
sg8
S'vehicle'
p485
sg10
(lp486
I1065
aI1
aI1121
aI40
asg12
I1
sasS'1D3001P3-095'
p487
(lp488
(dp489
g5
I0
sg6
S'Unspecified'
p490
sg8
S'vehicle'
p491
sg10
(lp492
I901
aI382
aI1063
aI495
asg12
I0
sa(dp493
g5
I0
sg6
S'Unspecified'
p494
sg8
S'vehicle'
p495
sg10
(lp496
I963
aI493
aI1083
aI623
asg12
I0
sa(dp497
g5
I0
sg6
S'Unspecified'
p498
sg8
S'vehicle'
p499
sg10
(lp500
I1085
aI334
aI1241
aI504
asg12
I0
sasS'1D3001P3-096'
p501
(lp502
(dp503
g5
I0
sg6
S'Unspecified'
p504
sg8
S'vehicle'
p505
sg10
(lp506
I654
aI408
aI765
aI552
asg12
I0
sa(dp507
g5
I0
sg6
S'Unspecified'
p508
sg8
S'vehicle'
p509
sg10
(lp510
I599
aI284
aI802
aI404
asg12
I0
sa(dp511
g5
I0
sg6
S'Unspecified'
p512
sg8
S'vehicle'
p513
sg10
(lp514
I816
aI237
aI1018
aI408
asg12
I0
sa(dp515
g5
I0
sg6
S'Unspecified'
p516
sg8
S'vehicle'
p517
sg10
(lp518
I1177
aI122
aI1280
aI278
asg12
I1
sa(dp519
g5
I0
sg6
S'Unspecified'
p520
sg8
S'vehicle'
p521
sg10
(lp522
I1177
aI482
aI1280
aI581
asg12
I1
sa(dp523
g5
I0
sg6
S'Unspecified'
p524
sg8
S'vehicle'
p525
sg10
(lp526
I1226
aI311
aI1280
aI409
asg12
I1
sasS'1D3001P3-097'
p527
(lp528
(dp529
g5
I0
sg6
S'Unspecified'
p530
sg8
S'vehicle'
p531
sg10
(lp532
I678
aI483
aI788
aI638
asg12
I0
sa(dp533
g5
I0
sg6
S'Unspecified'
p534
sg8
S'vehicle'
p535
sg10
(lp536
I667
aI353
aI899
aI465
asg12
I0
sa(dp537
g5
I0
sg6
S'Unspecified'
p538
sg8
S'vehicle'
p539
sg10
(lp540
I902
aI327
aI1151
aI508
asg12
I0
sasS'1D3001P3-098'
p541
(lp542
(dp543
g5
I0
sg6
S'Unspecified'
p544
sg8
S'vehicle'
p545
sg10
(lp546
I538
aI452
aI706
aI622
asg12
I0
sa(dp547
g5
I0
sg6
S'Unspecified'
p548
sg8
S'vehicle'
p549
sg10
(lp550
I632
aI336
aI877
aI444
asg12
I0
sa(dp551
g5
I0
sg6
S'Unspecified'
p552
sg8
S'vehicle'
p553
sg10
(lp554
I848
aI360
aI1131
aI531
asg12
I0
sa(dp555
g5
I0
sg6
S'Unspecified'
p556
sg8
S'vehicle'
p557
sg10
(lp558
I1097
aI467
aI1280
aI577
asg12
I1
sasS'1D3001P3-099'
p559
(lp560
(dp561
g5
I0
sg6
S'Unspecified'
p562
sg8
S'vehicle'
p563
sg10
(lp564
I368
aI547
aI497
aI610
asg12
I0
sa(dp565
g5
I0
sg6
S'Unspecified'
p566
sg8
S'vehicle'
p567
sg10
(lp568
I410
aI604
aI522
aI657
asg12
I0
sa(dp569
g5
I0
sg6
S'Unspecified'
p570
sg8
S'vehicle'
p571
sg10
(lp572
I603
aI558
aI763
aI622
asg12
I0
sa(dp573
g5
I0
sg6
S'Unspecified'
p574
sg8
S'vehicle'
p575
sg10
(lp576
I643
aI508
aI773
aI564
asg12
I0
sa(dp577
g5
I0
sg6
S'Unspecified'
p578
sg8
S'vehicle'
p579
sg10
(lp580
I504
aI323
aI610
aI403
asg12
I0
sa(dp581
g5
I0
sg6
S'Unspecified'
p582
sg8
S'vehicle'
p583
sg10
(lp584
I590
aI269
aI715
aI334
asg12
I0
sa(dp585
g5
I0
sg6
S'Unspecified'
p586
sg8
S'vehicle'
p587
sg10
(lp588
I685
aI313
aI829
aI387
asg12
I0
sa(dp589
g5
I0
sg6
S'Unspecified'
p590
sg8
S'vehicle'
p591
sg10
(lp592
I863
aI437
aI961
aI489
asg12
I0
sa(dp593
g5
I0
sg6
S'Unspecified'
p594
sg8
S'vehicle'
p595
sg10
(lp596
I1071
aI382
aI1193
aI445
asg12
I0
sa(dp597
g5
I0
sg6
S'Unspecified'
p598
sg8
S'vehicle'
p599
sg10
(lp600
I1009
aI517
aI1143
aI575
asg12
I0
sa(dp601
g5
I0
sg6
S'Unspecified'
p602
sg8
S'vehicle'
p603
sg10
(lp604
I1051
aI446
aI1199
aI509
asg12
I0
sasS'1D3001P3-102'
p605
(lp606
(dp607
g5
I0
sg6
S'Unspecified'
p608
sg8
S'vehicle'
p609
sg10
(lp610
I1
aI182
aI100
aI247
asg12
I1
sa(dp611
g5
I0
sg6
S'Unspecified'
p612
sg8
S'vehicle'
p613
sg10
(lp614
I30
aI53
aI160
aI146
asg12
I0
sa(dp615
g5
I0
sg6
S'Unspecified'
p616
sg8
S'vehicle'
p617
sg10
(lp618
I55
aI1
aI129
aI62
asg12
I1
sa(dp619
g5
I0
sg6
S'Unspecified'
p620
sg8
S'vehicle'
p621
sg10
(lp622
I189
aI249
aI293
aI308
asg12
I0
sa(dp623
g5
I0
sg6
S'Unspecified'
p624
sg8
S'vehicle'
p625
sg10
(lp626
I321
aI303
aI432
aI369
asg12
I0
sa(dp627
g5
I0
sg6
S'Unspecified'
p628
sg8
S'vehicle'
p629
sg10
(lp630
I554
aI266
aI659
aI333
asg12
I0
sa(dp631
g5
I0
sg6
S'Unspecified'
p632
sg8
S'vehicle'
p633
sg10
(lp634
I943
aI444
aI1059
aI508
asg12
I0
sa(dp635
g5
I0
sg6
S'Unspecified'
p636
sg8
S'vehicle'
p637
sg10
(lp638
I777
aI571
aI870
aI639
asg12
I0
sa(dp639
g5
I0
sg6
S'Unspecified'
p640
sg8
S'vehicle'
p641
sg10
(lp642
I641
aI505
aI743
aI568
asg12
I0
sa(dp643
g5
I0
sg6
S'Unspecified'
p644
sg8
S'vehicle'
p645
sg10
(lp646
I579
aI422
aI671
aI483
asg12
I0
sa(dp647
g5
I0
sg6
S'Unspecified'
p648
sg8
S'vehicle'
p649
sg10
(lp650
I515
aI445
aI616
aI507
asg12
I0
sa(dp651
g5
I0
sg6
S'Unspecified'
p652
sg8
S'vehicle'
p653
sg10
(lp654
I407
aI403
aI500
aI462
asg12
I0
sa(dp655
g5
I0
sg6
S'Unspecified'
p656
sg8
S'vehicle'
p657
sg10
(lp658
I266
aI405
aI380
aI464
asg12
I0
sa(dp659
g5
I0
sg6
S'Unspecified'
p660
sg8
S'vehicle'
p661
sg10
(lp662
I255
aI334
aI350
aI397
asg12
I0
sa(dp663
g5
I0
sg6
S'Unspecified'
p664
sg8
S'vehicle'
p665
sg10
(lp666
I115
aI324
aI220
aI398
asg12
I0
sasS'1D3001P3-103'
p667
(lp668
(dp669
g5
I0
sg6
S'Unspecified'
p670
sg8
S'vehicle'
p671
sg10
(lp672
I1002
aI341
aI1101
aI413
asg12
I0
sa(dp673
g5
I0
sg6
S'Unspecified'
p674
sg8
S'vehicle'
p675
sg10
(lp676
I518
aI410
aI602
aI474
asg12
I0
sa(dp677
g5
I0
sg6
S'Unspecified'
p678
sg8
S'vehicle'
p679
sg10
(lp680
I710
aI297
aI816
aI368
asg12
I0
sa(dp681
g5
I0
sg6
S'Unspecified'
p682
sg8
S'vehicle'
p683
sg10
(lp684
I1106
aI525
aI1211
aI580
asg12
I0
sa(dp685
g5
I0
sg6
S'Unspecified'
p686
sg8
S'vehicle'
p687
sg10
(lp688
I400
aI335
aI497
aI407
asg12
I0
sa(dp689
g5
I0
sg6
S'Unspecified'
p690
sg8
S'vehicle'
p691
sg10
(lp692
I355
aI252
aI443
aI311
asg12
I0
sa(dp693
g5
I0
sg6
S'Unspecified'
p694
sg8
S'vehicle'
p695
sg10
(lp696
I292
aI268
aI382
aI333
asg12
I0
sa(dp697
g5
I0
sg6
S'Unspecified'
p698
sg8
S'vehicle'
p699
sg10
(lp700
I371
aI101
aI466
aI163
asg12
I0
sa(dp701
g5
I0
sg6
S'Unspecified'
p702
sg8
S'vehicle'
p703
sg10
(lp704
I191
aI216
aI277
aI275
asg12
I0
sa(dp705
g5
I0
sg6
S'Unspecified'
p706
sg8
S'vehicle'
p707
sg10
(lp708
I136
aI120
aI226
aI186
asg12
I0
sa(dp709
g5
I0
sg6
S'Unspecified'
p710
sg8
S'vehicle'
p711
sg10
(lp712
I63
aI141
aI142
aI203
asg12
I0
sa(dp713
g5
I0
sg6
S'Unspecified'
p714
sg8
S'vehicle'
p715
sg10
(lp716
I81
aI214
aI159
aI274
asg12
I0
sa(dp717
g5
I0
sg6
S'Unspecified'
p718
sg8
S'vehicle'
p719
sg10
(lp720
I20
aI53
aI105
aI110
asg12
I0
sasS'1D3001P3-100'
p721
(lp722
(dp723
g5
I0
sg6
S'Unspecified'
p724
sg8
S'vehicle'
p725
sg10
(lp726
I1
aI474
aI109
aI529
asg12
I1
sa(dp727
g5
I0
sg6
S'Unspecified'
p728
sg8
S'vehicle'
p729
sg10
(lp730
I139
aI487
aI249
aI541
asg12
I0
sa(dp731
g5
I0
sg6
S'Unspecified'
p732
sg8
S'vehicle'
p733
sg10
(lp734
I345
aI258
aI468
aI323
asg12
I0
sa(dp735
g5
I0
sg6
S'Unspecified'
p736
sg8
S'vehicle'
p737
sg10
(lp738
I469
aI217
aI588
aI284
asg12
I0
sa(dp739
g5
I0
sg6
S'Unspecified'
p740
sg8
S'vehicle'
p741
sg10
(lp742
I526
aI274
aI667
aI351
asg12
I0
sa(dp743
g5
I0
sg6
S'Unspecified'
p744
sg8
S'vehicle'
p745
sg10
(lp746
I331
aI495
aI495
aI554
asg12
I0
sa(dp747
g5
I0
sg6
S'Unspecified'
p748
sg8
S'vehicle'
p749
sg10
(lp750
I399
aI451
aI521
aI497
asg12
I0
sa(dp751
g5
I0
sg6
S'Unspecified'
p752
sg8
S'vehicle'
p753
sg10
(lp754
I438
aI403
aI544
aI447
asg12
I0
sa(dp755
g5
I0
sg6
S'Unspecified'
p756
sg8
S'vehicle'
p757
sg10
(lp758
I854
aI408
aI975
aI475
asg12
I0
sa(dp759
g5
I0
sg6
S'Unspecified'
p760
sg8
S'vehicle'
p761
sg10
(lp762
I1034
aI422
aI1171
aI485
asg12
I0
sa(dp763
g5
I0
sg6
S'Unspecified'
p764
sg8
S'vehicle'
p765
sg10
(lp766
I992
aI484
aI1126
aI533
asg12
I0
sa(dp767
g5
I0
sg6
S'Unspecified'
p768
sg8
S'vehicle'
p769
sg10
(lp770
I625
aI421
aI736
aI480
asg12
I0
sa(dp771
g5
I0
sg6
S'Unspecified'
p772
sg8
S'vehicle'
p773
sg10
(lp774
I735
aI522
aI866
aI587
asg12
I0
sa(dp775
g5
I0
sg6
S'Unspecified'
p776
sg8
S'vehicle'
p777
sg10
(lp778
I1097
aI543
aI1205
aI579
asg12
I0
sa(dp779
g5
I0
sg6
S'Unspecified'
p780
sg8
S'vehicle'
p781
sg10
(lp782
I1236
aI489
aI1280
aI548
asg12
I1
sa(dp783
g5
I0
sg6
S'Unspecified'
p784
sg8
S'vehicle'
p785
sg10
(lp786
I1210
aI314
aI1280
aI363
asg12
I1
sasS'1D3001P3-101'
p787
(lp788
(dp789
g5
I0
sg6
S'Unspecified'
p790
sg8
S'vehicle'
p791
sg10
(lp792
I221
aI269
aI346
aI328
asg12
I0
sa(dp793
g5
I0
sg6
S'Unspecified'
p794
sg8
S'vehicle'
p795
sg10
(lp796
I356
aI241
aI456
aI313
asg12
I0
sa(dp797
g5
I0
sg6
S'Unspecified'
p798
sg8
S'vehicle'
p799
sg10
(lp800
I380
aI310
aI513
aI378
asg12
I0
sa(dp801
g5
I0
sg6
S'Unspecified'
p802
sg8
S'vehicle'
p803
sg10
(lp804
I211
aI352
aI329
aI412
asg12
I0
sa(dp805
g5
I0
sg6
S'Unspecified'
p806
sg8
S'vehicle'
p807
sg10
(lp808
I1
aI455
aI46
aI508
asg12
I1
sa(dp809
g5
I0
sg6
S'Unspecified'
p810
sg8
S'vehicle'
p811
sg10
(lp812
I127
aI478
aI269
aI554
asg12
I0
sa(dp813
g5
I0
sg6
S'Unspecified'
p814
sg8
S'vehicle'
p815
sg10
(lp816
I417
aI441
aI519
aI500
asg12
I0
sa(dp817
g5
I0
sg6
S'Unspecified'
p818
sg8
S'vehicle'
p819
sg10
(lp820
I633
aI464
aI743
aI522
asg12
I0
sa(dp821
g5
I0
sg6
S'Unspecified'
p822
sg8
S'vehicle'
p823
sg10
(lp824
I793
aI495
aI911
aI557
asg12
I0
sa(dp825
g5
I0
sg6
S'Unspecified'
p826
sg8
S'vehicle'
p827
sg10
(lp828
I736
aI536
aI859
aI597
asg12
I0
sa(dp829
g5
I0
sg6
S'Unspecified'
p830
sg8
S'vehicle'
p831
sg10
(lp832
I925
aI572
aI1037
aI631
asg12
I0
sa(dp833
g5
I0
sg6
S'Unspecified'
p834
sg8
S'vehicle'
p835
sg10
(lp836
I997
aI407
aI1120
aI466
asg12
I0
sa(dp837
g5
I0
sg6
S'Unspecified'
p838
sg8
S'vehicle'
p839
sg10
(lp840
I1065
aI597
aI1098
aI646
asg12
I0
sa(dp841
g5
I0
sg6
S'Unspecified'
p842
sg8
S'vehicle'
p843
sg10
(lp844
I1110
aI559
aI1216
aI584
asg12
I0
sa(dp845
g5
I0
sg6
S'Unspecified'
p846
sg8
S'vehicle'
p847
sg10
(lp848
I203
aI445
aI294
aI489
asg12
I0
sasS'1D3001P3-087'
p849
(lp850
(dp851
g5
I0
sg6
S'Unspecified'
p852
sg8
S'vehicle'
p853
sg10
(lp854
I21
aI469
aI121
aI545
asg12
I0
sa(dp855
g5
I0
sg6
S'Unspecified'
p856
sg8
S'vehicle'
p857
sg10
(lp858
I100
aI413
aI192
aI489
asg12
I0
sa(dp859
g5
I0
sg6
S'Unspecified'
p860
sg8
S'vehicle'
p861
sg10
(lp862
I177
aI341
aI273
aI428
asg12
I0
sa(dp863
g5
I0
sg6
S'Unspecified'
p864
sg8
S'vehicle'
p865
sg10
(lp866
I788
aI390
aI897
aI478
asg12
I0
sa(dp867
g5
I0
sg6
S'Unspecified'
p868
sg8
S'vehicle'
p869
sg10
(lp870
I927
aI138
aI1011
aI208
asg12
I0
sasS'1D3001P3-086'
p871
(lp872
(dp873
g5
I0
sg6
S'Unspecified'
p874
sg8
S'vehicle'
p875
sg10
(lp876
I380
aI691
aI426
aI720
asg12
I1
sa(dp877
g5
I0
sg6
S'Unspecified'
p878
sg8
S'vehicle'
p879
sg10
(lp880
I401
aI582
aI462
aI676
asg12
I0
sa(dp881
g5
I0
sg6
S'Unspecified'
p882
sg8
S'vehicle'
p883
sg10
(lp884
I427
aI453
aI493
aI568
asg12
I0
sa(dp885
g5
I0
sg6
S'Unspecified'
p886
sg8
S'vehicle'
p887
sg10
(lp888
I459
aI353
aI510
aI434
asg12
I0
sa(dp889
g5
I0
sg6
S'Unspecified'
p890
sg8
S'vehicle'
p891
sg10
(lp892
I480
aI268
aI544
aI348
asg12
I0
sa(dp893
g5
I0
sg6
S'Unspecified'
p894
sg8
S'vehicle'
p895
sg10
(lp896
I504
aI174
aI560
aI258
asg12
I0
sa(dp897
g5
I0
sg6
S'Unspecified'
p898
sg8
S'vehicle'
p899
sg10
(lp900
I525
aI18
aI598
aI166
asg12
I0
sa(dp901
g5
I0
sg6
S'Unspecified'
p902
sg8
S'vehicle'
p903
sg10
(lp904
I493
aI494
aI556
aI585
asg12
I0
sa(dp905
g5
I0
sg6
S'Unspecified'
p906
sg8
S'vehicle'
p907
sg10
(lp908
I523
aI618
aI598
aI697
asg12
I0
sa(dp909
g5
I0
sg6
S'Unspecified'
p910
sg8
S'vehicle'
p911
sg10
(lp912
I721
aI551
aI785
aI655
asg12
I0
sa(dp913
g5
I0
sg6
S'Unspecified'
p914
sg8
S'vehicle'
p915
sg10
(lp916
I771
aI464
aI860
aI551
asg12
I0
sa(dp917
g5
I0
sg6
S'Unspecified'
p918
sg8
S'vehicle'
p919
sg10
(lp920
I813
aI538
aI911
aI616
asg12
I0
sasS'1D3001P3-089'
p921
(lp922
(dp923
g5
I0
sg6
S'Unspecified'
p924
sg8
S'vehicle'
p925
sg10
(lp926
I1
aI436
aI63
aI489
asg12
I1
sa(dp927
g5
I0
sg6
S'Unspecified'
p928
sg8
S'vehicle'
p929
sg10
(lp930
I1
aI382
aI126
aI447
asg12
I1
sa(dp931
g5
I0
sg6
S'Unspecified'
p932
sg8
S'vehicle'
p933
sg10
(lp934
I211
aI395
aI324
aI455
asg12
I0
sa(dp935
g5
I0
sg6
S'Unspecified'
p936
sg8
S'vehicle'
p937
sg10
(lp938
I355
aI408
aI490
aI464
asg12
I0
sa(dp939
g5
I0
sg6
S'Unspecified'
p940
sg8
S'vehicle'
p941
sg10
(lp942
I526
aI414
aI654
aI469
asg12
I0
sa(dp943
g5
I0
sg6
S'Unspecified'
p944
sg8
S'vehicle'
p945
sg10
(lp946
I683
aI409
aI821
aI476
asg12
I0
sa(dp947
g5
I0
sg6
S'Unspecified'
p948
sg8
S'vehicle'
p949
sg10
(lp950
I832
aI431
aI943
aI475
asg12
I0
sa(dp951
g5
I0
sg6
S'Unspecified'
p952
sg8
S'vehicle'
p953
sg10
(lp954
I966
aI433
aI1092
aI490
asg12
I0
sa(dp955
g5
I0
sg6
S'Unspecified'
p956
sg8
S'vehicle'
p957
sg10
(lp958
I1109
aI443
aI1232
aI491
asg12
I0
sa(dp959
g5
I0
sg6
S'Unspecified'
p960
sg8
S'vehicle'
p961
sg10
(lp962
I1245
aI443
aI1280
aI497
asg12
I1
sasS'1D3001P3-088'
p963
(lp964
(dp965
g5
I0
sg6
S'Unspecified'
p966
sg8
S'vehicle'
p967
sg10
(lp968
I12
aI380
aI144
aI474
asg12
I0
sa(dp969
g5
I0
sg6
S'Unspecified'
p970
sg8
S'vehicle'
p971
sg10
(lp972
I138
aI369
aI246
aI429
asg12
I0
sa(dp973
g5
I0
sg6
S'Unspecified'
p974
sg8
S'vehicle'
p975
sg10
(lp976
I254
aI329
aI377
aI401
asg12
I0
sa(dp977
g5
I0
sg6
S'Unspecified'
p978
sg8
S'vehicle'
p979
sg10
(lp980
I373
aI292
aI490
aI358
asg12
I0
sa(dp981
g5
I0
sg6
S'Unspecified'
p982
sg8
S'vehicle'
p983
sg10
(lp984
I490
aI247
aI610
aI328
asg12
I0
sa(dp985
g5
I0
sg6
S'Unspecified'
p986
sg8
S'vehicle'
p987
sg10
(lp988
I1083
aI456
aI1181
aI562
asg12
I0
sas.